target datalayout = "e-m:e-p270:32:32-p271:32:32-p272:64:64-i64:64-i128:128-f80:128-n8:16:32:64-S128"
target triple = "x86_64-pc-linux-gnu"

%struct._address = type { i32, i32, ptr, ptr }
%struct._packet_info = type { ptr, ptr, i32, i32, %struct.nstime_t, %struct.nstime_t, %struct.nstime_t, i32, ptr, ptr, ptr, ptr, %struct._address, %struct._address, %struct._address, %struct._address, %struct._address, %struct._address, i32, ptr, i32, %struct.anon.3, i32, i32, i32, i32, ptr, i32, ptr, ptr, i16, i16, i32, i32, i16, i32, i32, ptr, ptr, ptr, i8, i8, i16, i16, i16, i32, i16, i16, ptr, ptr, ptr, ptr, ptr, i32 }
%struct.nstime_t = type { i64, i32 }
%struct.anon.3 = type { i8, [3 x i8] }

@show_soc_flags = hidden global i32 0, align 4
@hf_epl_soc_flags = internal global i32 0, align 4
@hf_epl_soc_nettime = internal global i32 0, align 4
@hf_epl_soc_relativetime = internal global i32 0, align 4
@ett_epl_soc = internal global i32 0, align 4
@dissect_epl_soc.soc_flags = internal constant [4 x ptr] [ptr @hf_epl_soc_mc, ptr @hf_epl_soc_ps, ptr @hf_epl_soc_dna_an, ptr null], align 16
@.str.683 = private unnamed_addr constant [14 x i8] c"F:MC=%d,PS=%d\00", align 1

; Function Attrs: nounwind uwtable
define internal i32 @dissect_epl_soc(ptr noundef %0, ptr noundef %1, ptr noundef %2, i32 noundef %3) #0 {
  %5 = alloca ptr, align 8
  %6 = alloca ptr, align 8
  %7 = alloca ptr, align 8
  %8 = alloca i32, align 4
  %9 = alloca i8, align 1
  store ptr %0, ptr %5, align 8
  store ptr %1, ptr %6, align 8
  store ptr %2, ptr %7, align 8
  store i32 %3, ptr %8, align 4
  %10 = load i32, ptr %8, align 4
  %11 = add i32 %10, 1
  store i32 %11, ptr %8, align 4
  %12 = load ptr, ptr %6, align 8
  %13 = load i32, ptr %8, align 4
  %14 = call zeroext i8 @tvb_get_guint8(ptr noundef %12, i32 noundef %13)
  store i8 %14, ptr %9, align 1
  %15 = load ptr, ptr %5, align 8
  %16 = load ptr, ptr %6, align 8
  %17 = load i32, ptr %8, align 4
  %18 = load i32, ptr @hf_epl_soc_flags, align 4
  %19 = load i32, ptr @ett_epl_soc, align 4
  %20 = call ptr @proto_tree_add_bitmask(ptr noundef %15, ptr noundef %16, i32 noundef %17, i32 noundef %18, i32 noundef %19, ptr noundef @dissect_epl_soc.soc_flags, i32 noundef 0)
  %21 = load i32, ptr %8, align 4
  %22 = add i32 %21, 2
  store i32 %22, ptr %8, align 4
  %23 = load i32, ptr @show_soc_flags, align 4
  %24 = icmp ne i32 %23, 0
  br i1 %24, label %25, label %37

25:                                               ; preds = %4
  %26 = load ptr, ptr %7, align 8
  %27 = getelementptr inbounds %struct._packet_info, ptr %26, i32 0, i32 1
  %28 = load ptr, ptr %27, align 8
  %29 = load i8, ptr %9, align 1
  %30 = zext i8 %29 to i32
  %31 = and i32 128, %30
  %32 = ashr i32 %31, 7
  %33 = load i8, ptr %9, align 1
  %34 = zext i8 %33 to i32
  %35 = and i32 64, %34
  %36 = ashr i32 %35, 6
  call void (ptr, i32, ptr, ...) @col_append_fstr(ptr noundef %28, i32 noundef 25, ptr noundef @.str.683, i32 noundef %32, i32 noundef %36)
  br label %37

37:                                               ; preds = %25, %4
  %38 = load ptr, ptr %5, align 8
  %39 = load i32, ptr @hf_epl_soc_nettime, align 4
  %40 = load ptr, ptr %6, align 8
  %41 = load i32, ptr %8, align 4
  %42 = call ptr @proto_tree_add_item(ptr noundef %38, i32 noundef %39, ptr noundef %40, i32 noundef %41, i32 noundef 8, i32 noundef -2147483648)
  %43 = load i32, ptr %8, align 4
  %44 = add i32 %43, 8
  store i32 %44, ptr %8, align 4
  %45 = load ptr, ptr %5, align 8
  %46 = load i32, ptr @hf_epl_soc_relativetime, align 4
  %47 = load ptr, ptr %6, align 8
  %48 = load i32, ptr %8, align 4
  %49 = call ptr @proto_tree_add_item(ptr noundef %45, i32 noundef %46, ptr noundef %47, i32 noundef %48, i32 noundef 8, i32 noundef -2147483648)
  %50 = load i32, ptr %8, align 4
  %51 = add i32 %50, 8
  store i32 %51, ptr %8, align 4
  %52 = load i32, ptr %8, align 4
  ret i32 %52
}