; Function Attrs: nounwind uwtable
define internal fastcc void @dissect_epl_soc(ptr noundef %0, ptr noundef %1, ptr noundef readonly captures(none) %2) unnamed_addr #2 {
  %4 = tail call zeroext i8 @tvb_get_guint8(ptr noundef %1, i32 noundef 4) #18
  %5 = load i32, ptr @hf_epl_soc_flags, align 4
  %6 = load i32, ptr @ett_epl_soc, align 4
  %7 = tail call ptr @proto_tree_add_bitmask(ptr noundef %0, ptr noundef %1, i32 noundef 4, i32 noundef %5, i32 noundef %6, ptr noundef nonnull @dissect_epl_soc.soc_flags, i32 noundef 0) #18
  %8 = load i32, ptr @show_soc_flags, align 4
  %.not = icmp eq i32 %8, 0
  br i1 %.not, label %16, label %9

9:                                                ; preds = %3
  %10 = getelementptr inbounds nuw i8, ptr %2, i64 8
  %11 = load ptr, ptr %10, align 8
  %12 = zext i8 %4 to i32
  %13 = lshr i32 %12, 7
  %14 = lshr i32 %12, 6
  %15 = and i32 %14, 1
  tail call void (ptr, i32, ptr, ...) @col_append_fstr(ptr noundef %11, i32 noundef 25, ptr noundef nonnull @.str.683, i32 noundef %13, i32 noundef %15) #18
  br label %16

16:                                               ; preds = %9, %3
  %17 = load i32, ptr @hf_epl_soc_nettime, align 4
  %18 = tail call ptr @proto_tree_add_item(ptr noundef %0, i32 noundef %17, ptr noundef %1, i32 noundef 6, i32 noundef 8, i32 noundef -2147483648) #18
  %19 = load i32, ptr @hf_epl_soc_relativetime, align 4
  %20 = tail call ptr @proto_tree_add_item(ptr noundef %0, i32 noundef %19, ptr noundef %1, i32 noundef 14, i32 noundef 8, i32 noundef -2147483648) #18
  ret void
}